; Function Attrs: nounwind sspstrong uwtable
define range(i32 0, 2) i32 @cJSON_AddItemToObject(ptr noundef %0, ptr noundef readonly %1, ptr noundef %2) local_unnamed_addr #8 {
  %4 = icmp eq ptr %0, null
  %5 = icmp eq ptr %1, null
  %or.cond.i = or i1 %4, %5
  %6 = icmp eq ptr %2, null
  %or.cond3.i = or i1 %or.cond.i, %6
  %7 = icmp eq ptr %0, %2
  %or.cond34.i = or i1 %7, %or.cond3.i
  br i1 %or.cond34.i, label %add_item_to_object.exit, label %8

8:                                                ; preds = %3
  %9 = tail call i64 @strlen(ptr noundef nonnull readonly dereferenceable(1) %1) #32
  %10 = add i64 %9, 1
  %11 = load ptr, ptr @global_hooks, align 8, !tbaa !18
  %12 = tail call ptr %11(i64 noundef %10) #31
  %13 = icmp eq ptr %12, null
  br i1 %13, label %add_item_to_object.exit, label %14

14:                                               ; preds = %8
  tail call void @llvm.memcpy.p0.p0.i64(ptr nonnull align 1 %12, ptr nonnull readonly align 1 %1, i64 %10, i1 false)
  %15 = getelementptr inbounds nuw i8, ptr %2, i64 24
  %16 = load i32, ptr %15, align 8, !tbaa !11
  %17 = and i32 %16, -513
  %18 = and i32 %16, 512
  %.not32.i = icmp eq i32 %18, 0
  br i1 %.not32.i, label %19, label %24

19:                                               ; preds = %14
  %20 = getelementptr inbounds nuw i8, ptr %2, i64 56
  %21 = load ptr, ptr %20, align 8, !tbaa !26
  %.not33.i = icmp eq ptr %21, null
  br i1 %.not33.i, label %24, label %22

22:                                               ; preds = %19
  %23 = load ptr, ptr getelementptr inbounds nuw (i8, ptr @global_hooks, i64 8), align 8, !tbaa !22
  tail call void %23(ptr noundef nonnull %21) #31
  br label %24

24:                                               ; preds = %22, %19, %14
  %25 = getelementptr inbounds nuw i8, ptr %2, i64 56
  store ptr %12, ptr %25, align 8, !tbaa !26
  store i32 %17, ptr %15, align 8, !tbaa !11
  %26 = getelementptr inbounds nuw i8, ptr %0, i64 16
  %27 = load ptr, ptr %26, align 8, !tbaa !25
  %28 = icmp eq ptr %27, null
  br i1 %28, label %29, label %31

29:                                               ; preds = %24
  store ptr %2, ptr %26, align 8, !tbaa !25
  %30 = getelementptr inbounds nuw i8, ptr %2, i64 8
  store ptr %2, ptr %30, align 8, !tbaa !40
  store ptr null, ptr %2, align 8, !tbaa !24
  br label %add_item_to_object.exit

31:                                               ; preds = %24
  %32 = getelementptr inbounds nuw i8, ptr %27, i64 8
  %33 = load ptr, ptr %32, align 8, !tbaa !40
  %.not.i.i = icmp eq ptr %33, null
  br i1 %.not.i.i, label %add_item_to_object.exit, label %34

34:                                               ; preds = %31
  store ptr %2, ptr %33, align 8, !tbaa !24
  %35 = getelementptr inbounds nuw i8, ptr %2, i64 8
  store ptr %33, ptr %35, align 8, !tbaa !40
  store ptr %2, ptr %32, align 8, !tbaa !40
  br label %add_item_to_object.exit

add_item_to_object.exit:                          ; preds = %3, %8, %29, %31, %34
  %.026.i = phi i32 [ 0, %3 ], [ 1, %29 ], [ 1, %31 ], [ 1, %34 ], [ 0, %8 ]
  ret i32 %.026.i
}